
encrypt:     file format elf32-i386


Disassembly of section .init:

00001000 <_init>:
    1000:	f3 0f 1e fb          	endbr32 
    1004:	53                   	push   %ebx
    1005:	83 ec 08             	sub    $0x8,%esp
    1008:	e8 63 01 00 00       	call   1170 <__x86.get_pc_thunk.bx>
    100d:	81 c3 a7 2f 00 00    	add    $0x2fa7,%ebx
    1013:	8b 83 38 00 00 00    	mov    0x38(%ebx),%eax
    1019:	85 c0                	test   %eax,%eax
    101b:	74 02                	je     101f <_init+0x1f>
    101d:	ff d0                	call   *%eax
    101f:	83 c4 08             	add    $0x8,%esp
    1022:	5b                   	pop    %ebx
    1023:	c3                   	ret    

Disassembly of section .plt:

00001030 <.plt>:
    1030:	ff b3 04 00 00 00    	push   0x4(%ebx)
    1036:	ff a3 08 00 00 00    	jmp    *0x8(%ebx)
    103c:	0f 1f 40 00          	nopl   0x0(%eax)
    1040:	f3 0f 1e fb          	endbr32 
    1044:	68 00 00 00 00       	push   $0x0
    1049:	e9 e2 ff ff ff       	jmp    1030 <.plt>
    104e:	66 90                	xchg   %ax,%ax
    1050:	f3 0f 1e fb          	endbr32 
    1054:	68 08 00 00 00       	push   $0x8
    1059:	e9 d2 ff ff ff       	jmp    1030 <.plt>
    105e:	66 90                	xchg   %ax,%ax
    1060:	f3 0f 1e fb          	endbr32 
    1064:	68 10 00 00 00       	push   $0x10
    1069:	e9 c2 ff ff ff       	jmp    1030 <.plt>
    106e:	66 90                	xchg   %ax,%ax
    1070:	f3 0f 1e fb          	endbr32 
    1074:	68 18 00 00 00       	push   $0x18
    1079:	e9 b2 ff ff ff       	jmp    1030 <.plt>
    107e:	66 90                	xchg   %ax,%ax
    1080:	f3 0f 1e fb          	endbr32 
    1084:	68 20 00 00 00       	push   $0x20
    1089:	e9 a2 ff ff ff       	jmp    1030 <.plt>
    108e:	66 90                	xchg   %ax,%ax
    1090:	f3 0f 1e fb          	endbr32 
    1094:	68 28 00 00 00       	push   $0x28
    1099:	e9 92 ff ff ff       	jmp    1030 <.plt>
    109e:	66 90                	xchg   %ax,%ax
    10a0:	f3 0f 1e fb          	endbr32 
    10a4:	68 30 00 00 00       	push   $0x30
    10a9:	e9 82 ff ff ff       	jmp    1030 <.plt>
    10ae:	66 90                	xchg   %ax,%ax

Disassembly of section .plt.got:

000010b0 <__cxa_finalize@plt>:
    10b0:	f3 0f 1e fb          	endbr32 
    10b4:	ff a3 34 00 00 00    	jmp    *0x34(%ebx)
    10ba:	66 0f 1f 44 00 00    	nopw   0x0(%eax,%eax,1)

Disassembly of section .plt.sec:

000010c0 <strerror@plt>:
    10c0:	f3 0f 1e fb          	endbr32 
    10c4:	ff a3 0c 00 00 00    	jmp    *0xc(%ebx)
    10ca:	66 0f 1f 44 00 00    	nopw   0x0(%eax,%eax,1)

000010d0 <exit@plt>:
    10d0:	f3 0f 1e fb          	endbr32 
    10d4:	ff a3 10 00 00 00    	jmp    *0x10(%ebx)
    10da:	66 0f 1f 44 00 00    	nopw   0x0(%eax,%eax,1)

000010e0 <__libc_start_main@plt>:
    10e0:	f3 0f 1e fb          	endbr32 
    10e4:	ff a3 14 00 00 00    	jmp    *0x14(%ebx)
    10ea:	66 0f 1f 44 00 00    	nopw   0x0(%eax,%eax,1)

000010f0 <fopen@plt>:
    10f0:	f3 0f 1e fb          	endbr32 
    10f4:	ff a3 18 00 00 00    	jmp    *0x18(%ebx)
    10fa:	66 0f 1f 44 00 00    	nopw   0x0(%eax,%eax,1)

00001100 <__errno_location@plt>:
    1100:	f3 0f 1e fb          	endbr32 
    1104:	ff a3 1c 00 00 00    	jmp    *0x1c(%ebx)
    110a:	66 0f 1f 44 00 00    	nopw   0x0(%eax,%eax,1)

00001110 <cypher@plt>:
    1110:	f3 0f 1e fb          	endbr32 
    1114:	ff a3 20 00 00 00    	jmp    *0x20(%ebx)
    111a:	66 0f 1f 44 00 00    	nopw   0x0(%eax,%eax,1)

00001120 <__fprintf_chk@plt>:
    1120:	f3 0f 1e fb          	endbr32 
    1124:	ff a3 24 00 00 00    	jmp    *0x24(%ebx)
    112a:	66 0f 1f 44 00 00    	nopw   0x0(%eax,%eax,1)

Disassembly of section .text:

00001130 <_start>:
    1130:	f3 0f 1e fb          	endbr32 
    1134:	31 ed                	xor    %ebp,%ebp
    1136:	5e                   	pop    %esi
    1137:	89 e1                	mov    %esp,%ecx
    1139:	83 e4 f0             	and    $0xfffffff0,%esp
    113c:	50                   	push   %eax
    113d:	54                   	push   %esp
    113e:	52                   	push   %edx
    113f:	e8 22 00 00 00       	call   1166 <_start+0x36>
    1144:	81 c3 70 2e 00 00    	add    $0x2e70,%ebx
    114a:	8d 83 6c d4 ff ff    	lea    -0x2b94(%ebx),%eax
    1150:	50                   	push   %eax
    1151:	8d 83 fc d3 ff ff    	lea    -0x2c04(%ebx),%eax
    1157:	50                   	push   %eax
    1158:	51                   	push   %ecx
    1159:	56                   	push   %esi
    115a:	ff b3 44 00 00 00    	push   0x44(%ebx)
    1160:	e8 7b ff ff ff       	call   10e0 <__libc_start_main@plt>
    1165:	f4                   	hlt    
    1166:	8b 1c 24             	mov    (%esp),%ebx
    1169:	c3                   	ret    
    116a:	66 90                	xchg   %ax,%ax
    116c:	66 90                	xchg   %ax,%ax
    116e:	66 90                	xchg   %ax,%ax

00001170 <__x86.get_pc_thunk.bx>:
    1170:	8b 1c 24             	mov    (%esp),%ebx
    1173:	c3                   	ret    
    1174:	66 90                	xchg   %ax,%ax
    1176:	66 90                	xchg   %ax,%ax
    1178:	66 90                	xchg   %ax,%ax
    117a:	66 90                	xchg   %ax,%ax
    117c:	66 90                	xchg   %ax,%ax
    117e:	66 90                	xchg   %ax,%ax

00001180 <deregister_tm_clones>:
    1180:	e8 e4 00 00 00       	call   1269 <__x86.get_pc_thunk.dx>
    1185:	81 c2 2f 2e 00 00    	add    $0x2e2f,%edx
    118b:	8d 8a 54 00 00 00    	lea    0x54(%edx),%ecx
    1191:	8d 82 54 00 00 00    	lea    0x54(%edx),%eax
    1197:	39 c8                	cmp    %ecx,%eax
    1199:	74 1d                	je     11b8 <deregister_tm_clones+0x38>
    119b:	8b 82 28 00 00 00    	mov    0x28(%edx),%eax
    11a1:	85 c0                	test   %eax,%eax
    11a3:	74 13                	je     11b8 <deregister_tm_clones+0x38>
    11a5:	55                   	push   %ebp
    11a6:	89 e5                	mov    %esp,%ebp
    11a8:	83 ec 14             	sub    $0x14,%esp
    11ab:	51                   	push   %ecx
    11ac:	ff d0                	call   *%eax
    11ae:	83 c4 10             	add    $0x10,%esp
    11b1:	c9                   	leave  
    11b2:	c3                   	ret    
    11b3:	8d 74 26 00          	lea    0x0(%esi,%eiz,1),%esi
    11b7:	90                   	nop
    11b8:	c3                   	ret    
    11b9:	8d b4 26 00 00 00 00 	lea    0x0(%esi,%eiz,1),%esi

000011c0 <register_tm_clones>:
    11c0:	e8 a4 00 00 00       	call   1269 <__x86.get_pc_thunk.dx>
    11c5:	81 c2 ef 2d 00 00    	add    $0x2def,%edx
    11cb:	55                   	push   %ebp
    11cc:	89 e5                	mov    %esp,%ebp
    11ce:	53                   	push   %ebx
    11cf:	8d 8a 54 00 00 00    	lea    0x54(%edx),%ecx
    11d5:	8d 82 54 00 00 00    	lea    0x54(%edx),%eax
    11db:	83 ec 04             	sub    $0x4,%esp
    11de:	29 c8                	sub    %ecx,%eax
    11e0:	89 c3                	mov    %eax,%ebx
    11e2:	c1 e8 1f             	shr    $0x1f,%eax
    11e5:	c1 fb 02             	sar    $0x2,%ebx
    11e8:	01 d8                	add    %ebx,%eax
    11ea:	d1 f8                	sar    %eax
    11ec:	74 14                	je     1202 <register_tm_clones+0x42>
    11ee:	8b 92 48 00 00 00    	mov    0x48(%edx),%edx
    11f4:	85 d2                	test   %edx,%edx
    11f6:	74 0a                	je     1202 <register_tm_clones+0x42>
    11f8:	83 ec 08             	sub    $0x8,%esp
    11fb:	50                   	push   %eax
    11fc:	51                   	push   %ecx
    11fd:	ff d2                	call   *%edx
    11ff:	83 c4 10             	add    $0x10,%esp
    1202:	8b 5d fc             	mov    -0x4(%ebp),%ebx
    1205:	c9                   	leave  
    1206:	c3                   	ret    
    1207:	8d b4 26 00 00 00 00 	lea    0x0(%esi,%eiz,1),%esi
    120e:	66 90                	xchg   %ax,%ax

00001210 <__do_global_dtors_aux>:
    1210:	f3 0f 1e fb          	endbr32 
    1214:	55                   	push   %ebp
    1215:	89 e5                	mov    %esp,%ebp
    1217:	53                   	push   %ebx
    1218:	e8 53 ff ff ff       	call   1170 <__x86.get_pc_thunk.bx>
    121d:	81 c3 97 2d 00 00    	add    $0x2d97,%ebx
    1223:	83 ec 04             	sub    $0x4,%esp
    1226:	80 bb 54 00 00 00 00 	cmpb   $0x0,0x54(%ebx)
    122d:	75 27                	jne    1256 <__do_global_dtors_aux+0x46>
    122f:	8b 83 34 00 00 00    	mov    0x34(%ebx),%eax
    1235:	85 c0                	test   %eax,%eax
    1237:	74 11                	je     124a <__do_global_dtors_aux+0x3a>
    1239:	83 ec 0c             	sub    $0xc,%esp
    123c:	ff b3 50 00 00 00    	push   0x50(%ebx)
    1242:	e8 69 fe ff ff       	call   10b0 <__cxa_finalize@plt>
    1247:	83 c4 10             	add    $0x10,%esp
    124a:	e8 31 ff ff ff       	call   1180 <deregister_tm_clones>
    124f:	c6 83 54 00 00 00 01 	movb   $0x1,0x54(%ebx)
    1256:	8b 5d fc             	mov    -0x4(%ebp),%ebx
    1259:	c9                   	leave  
    125a:	c3                   	ret    
    125b:	8d 74 26 00          	lea    0x0(%esi,%eiz,1),%esi
    125f:	90                   	nop

00001260 <frame_dummy>:
    1260:	f3 0f 1e fb          	endbr32 
    1264:	e9 57 ff ff ff       	jmp    11c0 <register_tm_clones>

00001269 <__x86.get_pc_thunk.dx>:
    1269:	8b 14 24             	mov    (%esp),%edx
    126c:	c3                   	ret    

0000126d <main>:
    126d:	f3 0f 1e fb          	endbr32 
    1271:	8d 4c 24 04          	lea    0x4(%esp),%ecx
    1275:	83 e4 f0             	and    $0xfffffff0,%esp
    1278:	ff 71 fc             	push   -0x4(%ecx)
    127b:	55                   	push   %ebp
    127c:	89 e5                	mov    %esp,%ebp
    127e:	57                   	push   %edi
    127f:	56                   	push   %esi
    1280:	53                   	push   %ebx
    1281:	51                   	push   %ecx
    1282:	83 ec 18             	sub    $0x18,%esp
    1285:	e8 e6 fe ff ff       	call   1170 <__x86.get_pc_thunk.bx>
    128a:	81 c3 2a 2d 00 00    	add    $0x2d2a,%ebx
    1290:	8b 31                	mov    (%ecx),%esi
    1292:	8b 41 04             	mov    0x4(%ecx),%eax
    1295:	89 45 e4             	mov    %eax,-0x1c(%ebp)
    1298:	8b 83 30 00 00 00    	mov    0x30(%ebx),%eax
    129e:	8b 00                	mov    (%eax),%eax
    12a0:	39 f0                	cmp    %esi,%eax
    12a2:	7c 78                	jl     131c <main+0xaf>
    12a4:	8b 83 3c 00 00 00    	mov    0x3c(%ebx),%eax
    12aa:	8b 38                	mov    (%eax),%edi
    12ac:	8b 83 30 00 00 00    	mov    0x30(%ebx),%eax
    12b2:	8b 00                	mov    (%eax),%eax
    12b4:	8d 50 01             	lea    0x1(%eax),%edx
    12b7:	39 f2                	cmp    %esi,%edx
    12b9:	0f 8d bb 00 00 00    	jge    137a <main+0x10d>
    12bf:	83 ec 08             	sub    $0x8,%esp
    12c2:	8d 93 6c e0 ff ff    	lea    -0x1f94(%ebx),%edx
    12c8:	52                   	push   %edx
    12c9:	8b 75 e4             	mov    -0x1c(%ebp),%esi
    12cc:	ff 74 86 04          	push   0x4(%esi,%eax,4)
    12d0:	e8 1b fe ff ff       	call   10f0 <fopen@plt>
    12d5:	83 c4 10             	add    $0x10,%esp
    12d8:	85 c0                	test   %eax,%eax
    12da:	0f 85 a2 00 00 00    	jne    1382 <main+0x115>
    12e0:	e8 1b fe ff ff       	call   1100 <__errno_location@plt>
    12e5:	83 ec 0c             	sub    $0xc,%esp
    12e8:	ff 30                	push   (%eax)
    12ea:	e8 d1 fd ff ff       	call   10c0 <strerror@plt>
    12ef:	83 c4 08             	add    $0x8,%esp
    12f2:	50                   	push   %eax
    12f3:	6a 34                	push   $0x34
    12f5:	8d 83 56 e0 ff ff    	lea    -0x1faa(%ebx),%eax
    12fb:	50                   	push   %eax
    12fc:	8d 83 5e e0 ff ff    	lea    -0x1fa2(%ebx),%eax
    1302:	50                   	push   %eax
    1303:	6a 01                	push   $0x1
    1305:	8b 83 2c 00 00 00    	mov    0x2c(%ebx),%eax
    130b:	ff 30                	push   (%eax)
    130d:	e8 0e fe ff ff       	call   1120 <__fprintf_chk@plt>
    1312:	83 c4 14             	add    $0x14,%esp
    1315:	6a 01                	push   $0x1
    1317:	e8 b4 fd ff ff       	call   10d0 <exit@plt>
    131c:	83 ec 08             	sub    $0x8,%esp
    131f:	8d 93 54 e0 ff ff    	lea    -0x1fac(%ebx),%edx
    1325:	52                   	push   %edx
    1326:	8b 7d e4             	mov    -0x1c(%ebp),%edi
    1329:	ff 34 87             	push   (%edi,%eax,4)
    132c:	e8 bf fd ff ff       	call   10f0 <fopen@plt>
    1331:	89 c7                	mov    %eax,%edi
    1333:	83 c4 10             	add    $0x10,%esp
    1336:	85 c0                	test   %eax,%eax
    1338:	0f 85 6e ff ff ff    	jne    12ac <main+0x3f>
    133e:	e8 bd fd ff ff       	call   1100 <__errno_location@plt>
    1343:	83 ec 0c             	sub    $0xc,%esp
    1346:	ff 30                	push   (%eax)
    1348:	e8 73 fd ff ff       	call   10c0 <strerror@plt>
    134d:	83 c4 08             	add    $0x8,%esp
    1350:	50                   	push   %eax
    1351:	6a 2b                	push   $0x2b
    1353:	8d 83 56 e0 ff ff    	lea    -0x1faa(%ebx),%eax
    1359:	50                   	push   %eax
    135a:	8d 83 5e e0 ff ff    	lea    -0x1fa2(%ebx),%eax
    1360:	50                   	push   %eax
    1361:	6a 01                	push   $0x1
    1363:	8b 83 2c 00 00 00    	mov    0x2c(%ebx),%eax
    1369:	ff 30                	push   (%eax)
    136b:	e8 b0 fd ff ff       	call   1120 <__fprintf_chk@plt>
    1370:	83 c4 14             	add    $0x14,%esp
    1373:	6a 01                	push   $0x1
    1375:	e8 56 fd ff ff       	call   10d0 <exit@plt>
    137a:	8b 83 40 00 00 00    	mov    0x40(%ebx),%eax
    1380:	8b 00                	mov    (%eax),%eax
    1382:	83 ec 0c             	sub    $0xc,%esp
    1385:	6a 00                	push   $0x0
    1387:	8d 93 70 e0 ff ff    	lea    -0x1f90(%ebx),%edx
    138d:	52                   	push   %edx
    138e:	6a 00                	push   $0x0
    1390:	50                   	push   %eax
    1391:	57                   	push   %edi
    1392:	e8 79 fd ff ff       	call   1110 <cypher@plt>
    1397:	83 c4 20             	add    $0x20,%esp
    139a:	b8 00 00 00 00       	mov    $0x0,%eax
    139f:	8d 65 f0             	lea    -0x10(%ebp),%esp
    13a2:	59                   	pop    %ecx
    13a3:	5b                   	pop    %ebx
    13a4:	5e                   	pop    %esi
    13a5:	5f                   	pop    %edi
    13a6:	5d                   	pop    %ebp
    13a7:	8d 61 fc             	lea    -0x4(%ecx),%esp
    13aa:	c3                   	ret    
    13ab:	66 90                	xchg   %ax,%ax
    13ad:	66 90                	xchg   %ax,%ax
    13af:	90                   	nop

000013b0 <__libc_csu_init>:
    13b0:	f3 0f 1e fb          	endbr32 
    13b4:	55                   	push   %ebp
    13b5:	e8 6b 00 00 00       	call   1425 <__x86.get_pc_thunk.bp>
    13ba:	81 c5 fa 2b 00 00    	add    $0x2bfa,%ebp
    13c0:	57                   	push   %edi
    13c1:	56                   	push   %esi
    13c2:	53                   	push   %ebx
    13c3:	83 ec 0c             	sub    $0xc,%esp
    13c6:	89 eb                	mov    %ebp,%ebx
    13c8:	8b 7c 24 28          	mov    0x28(%esp),%edi
    13cc:	e8 2f fc ff ff       	call   1000 <_init>
    13d1:	8d 9d f4 fe ff ff    	lea    -0x10c(%ebp),%ebx
    13d7:	8d 85 f0 fe ff ff    	lea    -0x110(%ebp),%eax
    13dd:	29 c3                	sub    %eax,%ebx
    13df:	c1 fb 02             	sar    $0x2,%ebx
    13e2:	74 29                	je     140d <__libc_csu_init+0x5d>
    13e4:	31 f6                	xor    %esi,%esi
    13e6:	8d b4 26 00 00 00 00 	lea    0x0(%esi,%eiz,1),%esi
    13ed:	8d 76 00             	lea    0x0(%esi),%esi
    13f0:	83 ec 04             	sub    $0x4,%esp
    13f3:	57                   	push   %edi
    13f4:	ff 74 24 2c          	push   0x2c(%esp)
    13f8:	ff 74 24 2c          	push   0x2c(%esp)
    13fc:	ff 94 b5 f0 fe ff ff 	call   *-0x110(%ebp,%esi,4)
    1403:	83 c6 01             	add    $0x1,%esi
    1406:	83 c4 10             	add    $0x10,%esp
    1409:	39 f3                	cmp    %esi,%ebx
    140b:	75 e3                	jne    13f0 <__libc_csu_init+0x40>
    140d:	83 c4 0c             	add    $0xc,%esp
    1410:	5b                   	pop    %ebx
    1411:	5e                   	pop    %esi
    1412:	5f                   	pop    %edi
    1413:	5d                   	pop    %ebp
    1414:	c3                   	ret    
    1415:	8d b4 26 00 00 00 00 	lea    0x0(%esi,%eiz,1),%esi
    141c:	8d 74 26 00          	lea    0x0(%esi,%eiz,1),%esi

00001420 <__libc_csu_fini>:
    1420:	f3 0f 1e fb          	endbr32 
    1424:	c3                   	ret    

00001425 <__x86.get_pc_thunk.bp>:
    1425:	8b 2c 24             	mov    (%esp),%ebp
    1428:	c3                   	ret    

Disassembly of section .fini:

0000142c <_fini>:
    142c:	f3 0f 1e fb          	endbr32 
    1430:	53                   	push   %ebx
    1431:	83 ec 08             	sub    $0x8,%esp
    1434:	e8 37 fd ff ff       	call   1170 <__x86.get_pc_thunk.bx>
    1439:	81 c3 7b 2b 00 00    	add    $0x2b7b,%ebx
    143f:	83 c4 08             	add    $0x8,%esp
    1442:	5b                   	pop    %ebx
    1443:	c3                   	ret    
